; ModuleID = '19/455.c'
source_filename = "19/455.c"
target datalayout = "e-m:e-p270:32:32-p271:32:32-p272:64:64-i64:64-f80:128-n8:16:32:64-S128"
target triple = "x86_64-pc-linux-gnu"

@.str = private unnamed_addr constant [3 x i8] c"%c\00", align 1
@.str.1 = private unnamed_addr constant [2 x i8] c" \00", align 1
@.str.2 = private unnamed_addr constant [4 x i8] c"%s \00", align 1
@.str.3 = private unnamed_addr constant [3 x i8] c"%s\00", align 1

; Function Attrs: noinline nounwind uwtable
define dso_local void @main() #0 {
  %1 = alloca i32, align 4
  %2 = alloca i32, align 4
  %3 = alloca i32, align 4
  %4 = alloca i32, align 4
  %5 = alloca [1000 x i8], align 16
  %6 = alloca [100 x i8], align 16
  %7 = alloca [100 x i8], align 16
  %8 = alloca i8*, align 8
  %9 = alloca i8*, align 8
  %10 = bitcast [1000 x i8]* %5 to i8*
  call void @llvm.memset.p0i8.i64(i8* align 16 %10, i8 0, i64 1000, i1 false)
  %11 = bitcast [100 x i8]* %6 to i8*
  call void @llvm.memset.p0i8.i64(i8* align 16 %11, i8 0, i64 100, i1 false)
  %12 = bitcast [100 x i8]* %7 to i8*
  call void @llvm.memset.p0i8.i64(i8* align 16 %12, i8 0, i64 100, i1 false)
  %13 = getelementptr inbounds [1000 x i8], [1000 x i8]* %5, i64 0, i64 0
  %14 = call i32 (i8*, ...) bitcast (i32 (...)* @gets to i32 (i8*, ...)*)(i8* %13)
  %15 = getelementptr inbounds [100 x i8], [100 x i8]* %6, i64 0, i64 0
  %16 = call i32 (i8*, ...) bitcast (i32 (...)* @gets to i32 (i8*, ...)*)(i8* %15)
  %17 = getelementptr inbounds [100 x i8], [100 x i8]* %7, i64 0, i64 0
  %18 = call i32 (i8*, ...) bitcast (i32 (...)* @gets to i32 (i8*, ...)*)(i8* %17)
  %19 = getelementptr inbounds [100 x i8], [100 x i8]* %6, i64 0, i64 0
  %20 = call i64 @strlen(i8* %19) #4
  %21 = trunc i64 %20 to i32
  store i32 %21, i32* %2, align 4
  %22 = getelementptr inbounds [100 x i8], [100 x i8]* %7, i64 0, i64 0
  %23 = call i64 @strlen(i8* %22) #4
  %24 = trunc i64 %23 to i32
  store i32 %24, i32* %3, align 4
  %25 = getelementptr inbounds [1000 x i8], [1000 x i8]* %5, i64 0, i64 0
  %26 = call i64 @strlen(i8* %25) #4
  %27 = trunc i64 %26 to i32
  store i32 %27, i32* %4, align 4
  %28 = getelementptr inbounds [1000 x i8], [1000 x i8]* %5, i64 0, i64 0
  store i8* %28, i8** %8, align 8
  br label %29

29:                                               ; preds = %149, %0
  %30 = load i8*, i8** %8, align 8
  %31 = getelementptr inbounds [1000 x i8], [1000 x i8]* %5, i64 0, i64 0
  %32 = load i32, i32* %4, align 4
  %33 = sext i32 %32 to i64
  %34 = getelementptr inbounds i8, i8* %31, i64 %33
  %35 = icmp ult i8* %30, %34
  br i1 %35, label %36, label %150

36:                                               ; preds = %29
  %37 = load i8*, i8** %8, align 8
  store i8* %37, i8** %9, align 8
  br label %38

38:                                               ; preds = %51, %36
  %39 = load i8*, i8** %9, align 8
  %40 = load i8, i8* %39, align 1
  %41 = sext i8 %40 to i32
  %42 = icmp ne i32 %41, 32
  br i1 %42, label %43, label %48

43:                                               ; preds = %38
  %44 = load i8*, i8** %9, align 8
  %45 = load i8, i8* %44, align 1
  %46 = sext i8 %45 to i32
  %47 = icmp ne i32 %46, 0
  br label %48

48:                                               ; preds = %43, %38
  %49 = phi i1 [ false, %38 ], [ %47, %43 ]
  br i1 %49, label %50, label %54

50:                                               ; preds = %48
  br label %51

51:                                               ; preds = %50
  %52 = load i8*, i8** %9, align 8
  %53 = getelementptr inbounds i8, i8* %52, i32 1
  store i8* %53, i8** %9, align 8
  br label %38

54:                                               ; preds = %48
  %55 = load i8*, i8** %9, align 8
  %56 = load i8*, i8** %8, align 8
  %57 = ptrtoint i8* %55 to i64
  %58 = ptrtoint i8* %56 to i64
  %59 = sub i64 %57, %58
  %60 = load i32, i32* %2, align 4
  %61 = sext i32 %60 to i64
  %62 = icmp ne i64 %59, %61
  br i1 %62, label %63, label %88

63:                                               ; preds = %54
  br label %64

64:                                               ; preds = %73, %63
  %65 = load i8*, i8** %8, align 8
  %66 = load i8*, i8** %9, align 8
  %67 = icmp ult i8* %65, %66
  br i1 %67, label %68, label %76

68:                                               ; preds = %64
  %69 = load i8*, i8** %8, align 8
  %70 = load i8, i8* %69, align 1
  %71 = sext i8 %70 to i32
  %72 = call i32 (i8*, ...) @printf(i8* getelementptr inbounds ([3 x i8], [3 x i8]* @.str, i64 0, i64 0), i32 %71)
  br label %73

73:                                               ; preds = %68
  %74 = load i8*, i8** %8, align 8
  %75 = getelementptr inbounds i8, i8* %74, i32 1
  store i8* %75, i8** %8, align 8
  br label %64

76:                                               ; preds = %64
  %77 = load i8*, i8** %9, align 8
  %78 = getelementptr inbounds [1000 x i8], [1000 x i8]* %5, i64 0, i64 0
  %79 = load i32, i32* %4, align 4
  %80 = sext i32 %79 to i64
  %81 = getelementptr inbounds i8, i8* %78, i64 %80
  %82 = icmp ne i8* %77, %81
  br i1 %82, label %83, label %87

83:                                               ; preds = %76
  %84 = call i32 (i8*, ...) @printf(i8* getelementptr inbounds ([2 x i8], [2 x i8]* @.str.1, i64 0, i64 0))
  %85 = load i8*, i8** %8, align 8
  %86 = getelementptr inbounds i8, i8* %85, i32 1
  store i8* %86, i8** %8, align 8
  br label %87

87:                                               ; preds = %83, %76
  br label %149

88:                                               ; preds = %54
  store i32 0, i32* %1, align 4
  %89 = load i8*, i8** %8, align 8
  store i8* %89, i8** %9, align 8
  br label %90

90:                                               ; preds = %106, %88
  %91 = load i32, i32* %1, align 4
  %92 = load i32, i32* %2, align 4
  %93 = icmp slt i32 %91, %92
  br i1 %93, label %94, label %111

94:                                               ; preds = %90
  %95 = load i8*, i8** %9, align 8
  %96 = load i8, i8* %95, align 1
  %97 = sext i8 %96 to i32
  %98 = load i32, i32* %1, align 4
  %99 = sext i32 %98 to i64
  %100 = getelementptr inbounds [100 x i8], [100 x i8]* %6, i64 0, i64 %99
  %101 = load i8, i8* %100, align 1
  %102 = sext i8 %101 to i32
  %103 = icmp ne i32 %97, %102
  br i1 %103, label %104, label %105

104:                                              ; preds = %94
  br label %111

105:                                              ; preds = %94
  br label %106

106:                                              ; preds = %105
  %107 = load i8*, i8** %9, align 8
  %108 = getelementptr inbounds i8, i8* %107, i32 1
  store i8* %108, i8** %9, align 8
  %109 = load i32, i32* %1, align 4
  %110 = add nsw i32 %109, 1
  store i32 %110, i32* %1, align 4
  br label %90

111:                                              ; preds = %104, %90
  %112 = load i32, i32* %1, align 4
  %113 = load i32, i32* %2, align 4
  %114 = icmp eq i32 %112, %113
  br i1 %114, label %115, label %134

115:                                              ; preds = %111
  %116 = load i8*, i8** %9, align 8
  %117 = getelementptr inbounds [1000 x i8], [1000 x i8]* %5, i64 0, i64 0
  %118 = load i32, i32* %4, align 4
  %119 = sext i32 %118 to i64
  %120 = getelementptr inbounds i8, i8* %117, i64 %119
  %121 = icmp ne i8* %116, %120
  br i1 %121, label %122, label %125

122:                                              ; preds = %115
  %123 = getelementptr inbounds [100 x i8], [100 x i8]* %7, i64 0, i64 0
  %124 = call i32 (i8*, ...) @printf(i8* getelementptr inbounds ([4 x i8], [4 x i8]* @.str.2, i64 0, i64 0), i8* %123)
  br label %128

125:                                              ; preds = %115
  %126 = getelementptr inbounds [100 x i8], [100 x i8]* %7, i64 0, i64 0
  %127 = call i32 (i8*, ...) @printf(i8* getelementptr inbounds ([3 x i8], [3 x i8]* @.str.3, i64 0, i64 0), i8* %126)
  br label %128

128:                                              ; preds = %125, %122
  %129 = load i8*, i8** %8, align 8
  %130 = load i32, i32* %2, align 4
  %131 = sext i32 %130 to i64
  %132 = getelementptr inbounds i8, i8* %129, i64 %131
  %133 = getelementptr inbounds i8, i8* %132, i64 1
  store i8* %133, i8** %8, align 8
  br label %148

134:                                              ; preds = %111
  br label %135

135:                                              ; preds = %144, %134
  %136 = load i8*, i8** %8, align 8
  %137 = load i8*, i8** %9, align 8
  %138 = icmp ule i8* %136, %137
  br i1 %138, label %139, label %147

139:                                              ; preds = %135
  %140 = load i8*, i8** %8, align 8
  %141 = load i8, i8* %140, align 1
  %142 = sext i8 %141 to i32
  %143 = call i32 (i8*, ...) @printf(i8* getelementptr inbounds ([3 x i8], [3 x i8]* @.str, i64 0, i64 0), i32 %142)
  br label %144

144:                                              ; preds = %139
  %145 = load i8*, i8** %8, align 8
  %146 = getelementptr inbounds i8, i8* %145, i32 1
  store i8* %146, i8** %8, align 8
  br label %135

147:                                              ; preds = %135
  br label %148

148:                                              ; preds = %147, %128
  br label %149

149:                                              ; preds = %148, %87
  br label %29

150:                                              ; preds = %29
  ret void
}

; Function Attrs: argmemonly nounwind willreturn
declare void @llvm.memset.p0i8.i64(i8* nocapture writeonly, i8, i64, i1 immarg) #1

declare dso_local i32 @gets(...) #2

; Function Attrs: nounwind readonly
declare dso_local i64 @strlen(i8*) #3

declare dso_local i32 @printf(i8*, ...) #2


!llvm.module.flags = !{!0}
!llvm.ident = !{!1}

!0 = !{i32 1, !"wchar_size", i32 4}
!1 = !{!"clang version 10.0.0-4ubuntu1 "}
